Certificate:
    Data:
        Version: 3 (0x2)
        Serial Number:
            cf:87:57:87:4d:c5:14:37:2c:6f:55:75:f3:28:0a:a2
        Signature Algorithm: sha256WithRSAEncryption
        Issuer: CN=*.wsc-france.internal
        Validity
            Not Before: May 17 05:28:06 2022 GMT
            Not After : Aug 19 05:28:06 2024 GMT
        Subject: CN=server
        Subject Public Key Info:
            Public Key Algorithm: rsaEncryption
                RSA Public-Key: (2048 bit)
                Modulus:
                    00:a3:5f:d7:7a:22:24:23:57:41:de:c1:68:82:c2:
                    93:f2:b6:da:93:16:02:c3:3c:a3:00:00:72:15:b6:
                    e1:d0:eb:fc:39:7e:21:a7:b4:e9:9d:19:17:6d:07:
                    6f:77:2a:9b:c8:64:98:ba:c4:eb:c4:36:25:29:f2:
                    23:66:bc:58:1b:de:00:5e:7d:c3:54:eb:c4:e0:e8:
                    7b:8a:42:ea:b8:e2:2f:63:c0:1b:14:fc:c9:3b:42:
                    c0:11:d0:39:68:bc:0a:78:20:50:a6:30:18:2a:76:
                    5c:61:51:d5:20:35:1f:44:c0:3c:5b:04:b9:6c:c6:
                    f4:2c:d0:50:1e:d7:96:85:e5:d1:52:06:83:2a:27:
                    b4:bb:5c:74:d6:5a:8e:86:9b:44:6b:ba:68:fb:36:
                    a8:3d:f0:64:46:72:8c:c6:bf:ee:5c:be:17:d9:50:
                    05:67:57:91:f8:2e:2d:a6:7a:9d:fb:d8:a9:bf:89:
                    8c:fb:60:0e:0e:f0:b7:56:60:88:c3:39:49:c9:c0:
                    75:ad:b9:20:56:08:82:6e:24:c0:75:4f:ca:db:78:
                    7b:dc:e3:dd:69:d6:3f:14:6c:47:fd:27:a3:3c:8e:
                    54:fb:16:4c:64:a9:ad:1e:c3:5a:cf:2f:1f:31:ad:
                    ca:0d:fc:27:67:32:f3:05:52:e2:76:a9:d1:6c:51:
                    02:47
                Exponent: 65537 (0x10001)
        X509v3 extensions:
            X509v3 Basic Constraints: 
                CA:FALSE
            X509v3 Subject Key Identifier: 
                63:0D:03:83:39:DD:9B:65:B6:1B:15:7C:B7:84:5A:DD:19:9F:B9:6D
            X509v3 Authority Key Identifier: 
                keyid:B2:AC:0F:F1:1D:2A:5A:5C:A3:A8:7E:A1:F7:EE:E2:9F:31:36:4A:6A
                DirName:/CN=*.wsc-france.internal
                serial:3D:5B:DD:4D:32:0F:A8:91:74:3A:00:E8:B4:D0:97:68:5C:2C:E9:2D

            X509v3 Extended Key Usage: 
                TLS Web Server Authentication
            X509v3 Key Usage: 
                Digital Signature, Key Encipherment
            X509v3 Subject Alternative Name: 
                DNS:server
    Signature Algorithm: sha256WithRSAEncryption
         7a:50:da:13:f5:23:f4:97:72:26:6d:3e:07:8c:a1:56:d9:3d:
         f3:ca:55:70:cc:c3:a8:36:da:a3:bd:0a:c8:ff:26:fb:4b:0c:
         9f:95:61:8c:9f:a4:ac:b5:fc:29:ab:60:4e:0c:65:ce:14:e4:
         17:b6:8e:41:25:66:0a:a9:0b:38:90:61:93:92:e6:f1:e6:07:
         e5:07:8e:7a:00:9a:c6:f8:22:63:c8:4e:c4:40:65:5d:71:d0:
         3c:52:bd:26:89:cf:53:dc:d4:a8:f8:82:e3:ce:2d:4d:75:ce:
         b4:99:96:32:2e:8f:21:92:5e:74:79:98:d7:aa:af:b7:9a:86:
         b5:ff:dc:f0:da:4c:fe:a8:86:da:1d:0d:46:59:bd:04:4c:01:
         b9:ea:a3:d1:76:31:e2:3a:62:0b:ec:da:ae:6e:5c:78:1c:c6:
         82:da:60:63:53:3a:4a:02:d3:c9:9e:c9:f8:93:31:29:71:2c:
         7f:b2:b9:5d:91:0b:28:94:9b:01:84:b2:c7:25:ac:23:37:b1:
         79:4e:5c:fc:13:f6:91:cc:1b:27:d2:57:9a:73:fd:71:f0:dc:
         63:37:44:ac:42:4a:ce:eb:72:71:01:b4:3a:e1:c5:01:75:d8:
         85:4a:21:44:c0:4c:17:55:94:d9:a9:4d:b4:99:e7:df:cd:ba:
         a7:cf:f3:15
-----BEGIN CERTIFICATE-----
MIIDfDCCAmSgAwIBAgIRAM+HV4dNxRQ3LG9VdfMoCqIwDQYJKoZIhvcNAQELBQAw
IDEeMBwGA1UEAwwVKi53c2MtZnJhbmNlLmludGVybmFsMB4XDTIyMDUxNzA1Mjgw
NloXDTI0MDgxOTA1MjgwNlowETEPMA0GA1UEAwwGc2VydmVyMIIBIjANBgkqhkiG
9w0BAQEFAAOCAQ8AMIIBCgKCAQEAo1/XeiIkI1dB3sFogsKT8rbakxYCwzyjAABy
Fbbh0Ov8OX4hp7TpnRkXbQdvdyqbyGSYusTrxDYlKfIjZrxYG94AXn3DVOvE4Oh7
ikLquOIvY8AbFPzJO0LAEdA5aLwKeCBQpjAYKnZcYVHVIDUfRMA8WwS5bMb0LNBQ
HteWheXRUgaDKie0u1x01lqOhptEa7po+zaoPfBkRnKMxr/uXL4X2VAFZ1eR+C4t
pnqd+9ipv4mM+2AODvC3VmCIwzlJycB1rbkgVgiCbiTAdU/K23h73OPdadY/FGxH
/SejPI5U+xZMZKmtHsNazy8fMa3KDfwnZzLzBVLidqnRbFECRwIDAQABo4G/MIG8
MAkGA1UdEwQCMAAwHQYDVR0OBBYEFGMNA4M53ZtlthsVfLeEWt0Zn7ltMFsGA1Ud
IwRUMFKAFLKsD/EdKlpco6h+offu4p8xNkpqoSSkIjAgMR4wHAYDVQQDDBUqLndz
Yy1mcmFuY2UuaW50ZXJuYWyCFD1b3U0yD6iRdDoA6LTQl2hcLOktMBMGA1UdJQQM
MAoGCCsGAQUFBwMBMAsGA1UdDwQEAwIFoDARBgNVHREECjAIggZzZXJ2ZXIwDQYJ
KoZIhvcNAQELBQADggEBAHpQ2hP1I/SXciZtPgeMoVbZPfPKVXDMw6g22qO9Csj/
JvtLDJ+VYYyfpKy1/CmrYE4MZc4U5Be2jkElZgqpCziQYZOS5vHmB+UHjnoAmsb4
ImPITsRAZV1x0DxSvSaJz1Pc1Kj4guPOLU11zrSZljIujyGSXnR5mNeqr7eahrX/
3PDaTP6ohtodDUZZvQRMAbnqo9F2MeI6Ygvs2q5uXHgcxoLaYGNTOkoC08meyfiT
MSlxLH+yuV2RCyiUmwGEssclrCM3sXlOXPwT9pHMGyfSV5pz/XHw3GM3RKxCSs7r
cnEBtDrhxQF12IVKIUTATBdVlNmpTbSZ59/NuqfP8xU=
-----END CERTIFICATE-----
